; ModuleID = 'source-C-CXX/53/1372.cpp'
source_filename = "source-C-CXX/53/1372.cpp"
target datalayout = "e-m:e-p270:32:32-p271:32:32-p272:64:64-i64:64-f80:128-n8:16:32:64-S128"
target triple = "x86_64-pc-linux-gnu"

%"class.std::ios_base::Init" = type { i8 }
%"class.std::basic_istream" = type { i32 (...)**, i64, %"class.std::basic_ios" }
%"class.std::basic_ios" = type { %"class.std::ios_base", %"class.std::basic_ostream"*, i8, i8, %"class.std::basic_streambuf"*, %"class.std::ctype"*, %"class.std::num_put"*, %"class.std::num_get"* }
%"class.std::ios_base" = type { i32 (...)**, i64, i64, i32, i32, i32, %"struct.std::ios_base::_Callback_list"*, %"struct.std::ios_base::_Words", [8 x %"struct.std::ios_base::_Words"], i32, %"struct.std::ios_base::_Words"*, %"class.std::locale" }
%"struct.std::ios_base::_Callback_list" = type { %"struct.std::ios_base::_Callback_list"*, void (i32, %"class.std::ios_base"*, i32)*, i32, i32 }
%"struct.std::ios_base::_Words" = type { i8*, i64 }
%"class.std::locale" = type { %"class.std::locale::_Impl"* }
%"class.std::locale::_Impl" = type { i32, %"class.std::locale::facet"**, i64, %"class.std::locale::facet"**, i8** }
%"class.std::locale::facet" = type <{ i32 (...)**, i32, [4 x i8] }>
%"class.std::basic_ostream" = type { i32 (...)**, %"class.std::basic_ios" }
%"class.std::basic_streambuf" = type { i32 (...)**, i8*, i8*, i8*, i8*, i8*, i8*, %"class.std::locale" }
%"class.std::ctype" = type <{ %"class.std::locale::facet.base", [4 x i8], %struct.__locale_struct*, i8, [7 x i8], i32*, i32*, i16*, i8, [256 x i8], [256 x i8], i8, [6 x i8] }>
%"class.std::locale::facet.base" = type <{ i32 (...)**, i32 }>
%struct.__locale_struct = type { [13 x %struct.__locale_data*], i16*, i32*, i32*, [13 x i8*] }
%struct.__locale_data = type opaque
%"class.std::num_put" = type { %"class.std::locale::facet.base", [4 x i8] }
%"class.std::num_get" = type { %"class.std::locale::facet.base", [4 x i8] }

@_ZStL8__ioinit = internal global %"class.std::ios_base::Init" zeroinitializer, align 1
@__dso_handle = external hidden global i8
@_ZSt3cin = external global %"class.std::basic_istream", align 8
@_ZSt4cout = external global %"class.std::basic_ostream", align 8
@llvm.global_ctors = appending global [1 x { i32, void ()*, i8* }] [{ i32, void ()*, i8* } { i32 65535, void ()* @_GLOBAL__sub_I_1372.cpp, i8* null }]

declare void @_ZNSt8ios_base4InitC1Ev(%"class.std::ios_base::Init"* nonnull align 1 dereferenceable(1)) unnamed_addr #0

; Function Attrs: nounwind
declare void @_ZNSt8ios_base4InitD1Ev(%"class.std::ios_base::Init"* nonnull align 1 dereferenceable(1)) unnamed_addr #1

; Function Attrs: nofree nounwind
declare i32 @__cxa_atexit(void (i8*)*, i8*, i8*) local_unnamed_addr #2

; Function Attrs: mustprogress nofree nosync nounwind readnone sspstrong uwtable willreturn
define dso_local i32 @_Z1fii(i32 %0, i32 %1) local_unnamed_addr #3 {
  %3 = alloca [100 x i32], align 16
  %4 = bitcast [100 x i32]* %3 to i8*
  call void @llvm.lifetime.start.p0i8(i64 400, i8* nonnull %4) #8
  %5 = getelementptr inbounds [100 x i32], [100 x i32]* %3, i64 0, i64 1
  %6 = add nsw i32 %0, -1
  %7 = icmp sgt i32 %0, 1
  call void @llvm.assume(i1 %7)
  %8 = zext i32 %0 to i64
  br label %9

9:                                                ; preds = %2, %26
  %10 = phi i32 [ %27, %26 ], [ %1, %2 ]
  %11 = add nsw i32 %10, %0
  store i32 %11, i32* %5, align 4, !tbaa !5
  %12 = srem i32 %11, %6
  %13 = icmp eq i32 %12, 0
  br i1 %13, label %18, label %26

14:                                               ; preds = %18
  %15 = add nuw nsw i64 %19, 1
  %16 = srem i32 %23, %6
  %17 = icmp eq i32 %16, 0
  br i1 %17, label %18, label %26, !llvm.loop !9

18:                                               ; preds = %9, %14
  %19 = phi i64 [ %15, %14 ], [ 2, %9 ]
  %20 = phi i32 [ %23, %14 ], [ %11, %9 ]
  %21 = sdiv i32 %20, %6
  %22 = mul nsw i32 %21, %0
  %23 = add nsw i32 %22, %1
  %24 = getelementptr inbounds [100 x i32], [100 x i32]* %3, i64 0, i64 %19
  store i32 %23, i32* %24, align 4, !tbaa !5
  %25 = icmp eq i64 %19, %8
  br i1 %25, label %28, label %14

26:                                               ; preds = %14, %9
  %27 = load i32, i32* %5, align 4, !tbaa !5
  br label %9, !llvm.loop !11

28:                                               ; preds = %18
  %29 = zext i32 %0 to i64
  %30 = getelementptr inbounds [100 x i32], [100 x i32]* %3, i64 0, i64 %29
  %31 = load i32, i32* %30, align 4, !tbaa !5
  call void @llvm.lifetime.end.p0i8(i64 400, i8* nonnull %4) #8
  ret i32 %31
}

; Function Attrs: argmemonly mustprogress nofree nosync nounwind willreturn
declare void @llvm.lifetime.start.p0i8(i64 immarg, i8* nocapture) #4

; Function Attrs: argmemonly mustprogress nofree nosync nounwind willreturn
declare void @llvm.lifetime.end.p0i8(i64 immarg, i8* nocapture) #4

; Function Attrs: mustprogress norecurse sspstrong uwtable
define dso_local i32 @main() local_unnamed_addr #5 {
  %1 = alloca [100 x i32], align 16
  %2 = alloca i32, align 4
  %3 = alloca i32, align 4
  %4 = bitcast i32* %2 to i8*
  call void @llvm.lifetime.start.p0i8(i64 4, i8* nonnull %4) #8
  %5 = bitcast i32* %3 to i8*
  call void @llvm.lifetime.start.p0i8(i64 4, i8* nonnull %5) #8
  %6 = call nonnull align 8 dereferenceable(16) %"class.std::basic_istream"* @_ZNSirsERi(%"class.std::basic_istream"* nonnull align 8 dereferenceable(16) @_ZSt3cin, i32* nonnull align 4 dereferenceable(4) %2)
  %7 = call nonnull align 8 dereferenceable(16) %"class.std::basic_istream"* @_ZNSirsERi(%"class.std::basic_istream"* nonnull align 8 dereferenceable(16) %6, i32* nonnull align 4 dereferenceable(4) %3)
  %8 = load i32, i32* %2, align 4, !tbaa !5
  %9 = load i32, i32* %3, align 4, !tbaa !5
  %10 = bitcast [100 x i32]* %1 to i8*
  call void @llvm.lifetime.start.p0i8(i64 400, i8* nonnull %10) #8
  %11 = getelementptr inbounds [100 x i32], [100 x i32]* %1, i64 0, i64 1
  %12 = add nsw i32 %8, -1
  %13 = icmp sgt i32 %8, 1
  call void @llvm.assume(i1 %13) #8
  %14 = zext i32 %8 to i64
  br label %15

15:                                               ; preds = %34, %0
  %16 = phi i32 [ %9, %0 ], [ %35, %34 ]
  %17 = add nsw i32 %16, %8
  store i32 %17, i32* %11, align 4, !tbaa !5
  %18 = srem i32 %17, %12
  %19 = icmp eq i32 %18, 0
  br i1 %19, label %24, label %34

20:                                               ; preds = %24
  %21 = add nuw nsw i64 %25, 1
  %22 = srem i32 %29, %12
  %23 = icmp eq i32 %22, 0
  br i1 %23, label %24, label %32, !llvm.loop !9

24:                                               ; preds = %15, %20
  %25 = phi i64 [ %21, %20 ], [ 2, %15 ]
  %26 = phi i32 [ %29, %20 ], [ %17, %15 ]
  %27 = sdiv i32 %26, %12
  %28 = mul nsw i32 %27, %8
  %29 = add nsw i32 %28, %9
  %30 = getelementptr inbounds [100 x i32], [100 x i32]* %1, i64 0, i64 %25
  store i32 %29, i32* %30, align 4, !tbaa !5
  %31 = icmp eq i64 %25, %14
  br i1 %31, label %36, label %20

32:                                               ; preds = %20
  %33 = load i32, i32* %11, align 4, !tbaa !5
  br label %34

34:                                               ; preds = %32, %15
  %35 = phi i32 [ %33, %32 ], [ %17, %15 ]
  br label %15, !llvm.loop !11

36:                                               ; preds = %24
  %37 = getelementptr inbounds [100 x i32], [100 x i32]* %1, i64 0, i64 %14
  %38 = load i32, i32* %37, align 4, !tbaa !5
  call void @llvm.lifetime.end.p0i8(i64 400, i8* nonnull %10) #8
  %39 = call nonnull align 8 dereferenceable(8) %"class.std::basic_ostream"* @_ZNSolsEi(%"class.std::basic_ostream"* nonnull align 8 dereferenceable(8) @_ZSt4cout, i32 %38)
  call void @llvm.lifetime.end.p0i8(i64 4, i8* nonnull %5) #8
  call void @llvm.lifetime.end.p0i8(i64 4, i8* nonnull %4) #8
  ret i32 0
}

declare nonnull align 8 dereferenceable(16) %"class.std::basic_istream"* @_ZNSirsERi(%"class.std::basic_istream"* nonnull align 8 dereferenceable(16), i32* nonnull align 4 dereferenceable(4)) local_unnamed_addr #0

declare nonnull align 8 dereferenceable(8) %"class.std::basic_ostream"* @_ZNSolsEi(%"class.std::basic_ostream"* nonnull align 8 dereferenceable(8), i32) local_unnamed_addr #0

; Function Attrs: sspstrong uwtable
define internal void @_GLOBAL__sub_I_1372.cpp() #6 section ".text.startup" {
  tail call void @_ZNSt8ios_base4InitC1Ev(%"class.std::ios_base::Init"* nonnull align 1 dereferenceable(1) @_ZStL8__ioinit)
  %1 = tail call i32 @__cxa_atexit(void (i8*)* bitcast (void (%"class.std::ios_base::Init"*)* @_ZNSt8ios_base4InitD1Ev to void (i8*)*), i8* getelementptr inbounds (%"class.std::ios_base::Init", %"class.std::ios_base::Init"* @_ZStL8__ioinit, i64 0, i32 0), i8* nonnull @__dso_handle) #8
  ret void
}

; Function Attrs: inaccessiblememonly nofree nosync nounwind willreturn
declare void @llvm.assume(i1 noundef) #7


!llvm.module.flags = !{!0, !1, !2, !3}
!llvm.ident = !{!4}

!0 = !{i32 1, !"wchar_size", i32 4}
!1 = !{i32 7, !"PIC Level", i32 2}
!2 = !{i32 7, !"PIE Level", i32 2}
!3 = !{i32 7, !"uwtable", i32 1}
!4 = !{!"clang version 13.0.0"}
!5 = !{!6, !6, i64 0}
!6 = !{!"int", !7, i64 0}
!7 = !{!"omnipotent char", !8, i64 0}
!8 = !{!"Simple C++ TBAA"}
!9 = distinct !{!9, !10}
!10 = !{!"llvm.loop.mustprogress"}
!11 = distinct !{!11, !10}
